; Function Attrs: mustprogress nounwind uwtable
define hidden void @_ZN4lean14max_sharing_fn5clearEv(ptr noundef nonnull readonly align 8 captures(none) dereferenceable(8) %0) local_unnamed_addr #2 align 2 personality ptr @__gxx_personality_v0 {
  %2 = load ptr, ptr %0, align 8, !tbaa !20
  %3 = getelementptr inbounds nuw i8, ptr %2, i64 16
  %4 = load ptr, ptr %3, align 8, !tbaa !22
  %.not5.i.i.i = icmp eq ptr %4, null
  br i1 %.not5.i.i.i, label %_ZNSt13unordered_setIN4lean4exprENS0_9expr_hashENS0_16is_bi_equal_procESaIS1_EE5clearEv.exit, label %.lr.ph.i.i.i

.lr.ph.i.i.i:                                     ; preds = %1, %_ZNSt8__detail16_Hashtable_allocISaINS_10_Hash_nodeIN4lean4exprELb1EEEEE18_M_deallocate_nodeEPS4_.exit.i.i.i
  %.06.i.i.i = phi ptr [ %5, %_ZNSt8__detail16_Hashtable_allocISaINS_10_Hash_nodeIN4lean4exprELb1EEEEE18_M_deallocate_nodeEPS4_.exit.i.i.i ], [ %4, %1 ]
  %5 = load ptr, ptr %.06.i.i.i, align 8, !tbaa !23
  %6 = getelementptr inbounds nuw i8, ptr %.06.i.i.i, i64 8
  %7 = load ptr, ptr %6, align 8, !tbaa !24
  %8 = ptrtoint ptr %7 to i64
  %9 = and i64 %8, 1
  %.not.i.i.i.i.i.i = icmp eq i64 %9, 0
  br i1 %.not.i.i.i.i.i.i, label %10, label %_ZNSt8__detail16_Hashtable_allocISaINS_10_Hash_nodeIN4lean4exprELb1EEEEE18_M_deallocate_nodeEPS4_.exit.i.i.i

10:                                               ; preds = %.lr.ph.i.i.i
  %11 = load i32, ptr %7, align 4, !tbaa !26
  %12 = icmp sgt i32 %11, 1
  br i1 %12, label %13, label %15, !prof !29

13:                                               ; preds = %10
  %14 = add nsw i32 %11, -1
  store i32 %14, ptr %7, align 4, !tbaa !26
  br label %_ZNSt8__detail16_Hashtable_allocISaINS_10_Hash_nodeIN4lean4exprELb1EEEEE18_M_deallocate_nodeEPS4_.exit.i.i.i

15:                                               ; preds = %10
  %.not.i.i.i.i.i.i.i = icmp eq i32 %11, 0
  br i1 %.not.i.i.i.i.i.i.i, label %_ZNSt8__detail16_Hashtable_allocISaINS_10_Hash_nodeIN4lean4exprELb1EEEEE18_M_deallocate_nodeEPS4_.exit.i.i.i, label %16

16:                                               ; preds = %15
  invoke void @lean_dec_ref_cold(ptr noundef nonnull %7)
          to label %_ZNSt8__detail16_Hashtable_allocISaINS_10_Hash_nodeIN4lean4exprELb1EEEEE18_M_deallocate_nodeEPS4_.exit.i.i.i unwind label %17

17:                                               ; preds = %16
  %18 = landingpad { ptr, i32 }
          catch ptr null
  %19 = extractvalue { ptr, i32 } %18, 0
  tail call void @__clang_call_terminate(ptr %19) #14
  unreachable

_ZNSt8__detail16_Hashtable_allocISaINS_10_Hash_nodeIN4lean4exprELb1EEEEE18_M_deallocate_nodeEPS4_.exit.i.i.i: ; preds = %16, %15, %13, %.lr.ph.i.i.i
  tail call void @_ZdlPvm(ptr noundef nonnull %.06.i.i.i, i64 noundef 24) #13
  %.not.i.i.i = icmp eq ptr %5, null
  br i1 %.not.i.i.i, label %_ZNSt13unordered_setIN4lean4exprENS0_9expr_hashENS0_16is_bi_equal_procESaIS1_EE5clearEv.exit, label %.lr.ph.i.i.i, !llvm.loop !30

_ZNSt13unordered_setIN4lean4exprENS0_9expr_hashENS0_16is_bi_equal_procESaIS1_EE5clearEv.exit: ; preds = %_ZNSt8__detail16_Hashtable_allocISaINS_10_Hash_nodeIN4lean4exprELb1EEEEE18_M_deallocate_nodeEPS4_.exit.i.i.i, %1
  %20 = load ptr, ptr %2, align 8, !tbaa !3
  %21 = getelementptr inbounds nuw i8, ptr %2, i64 8
  %22 = load i64, ptr %21, align 8, !tbaa !15
  %23 = shl i64 %22, 3
  tail call void @llvm.memset.p0.i64(ptr align 8 %20, i8 0, i64 %23, i1 false)
  tail call void @llvm.memset.p0.i64(ptr noundef nonnull align 8 dereferenceable(16) %3, i8 0, i64 16, i1 false)
  ret void
}